; Function Attrs: nounwind uwtable
define dso_local range(i32 0, 62) i32 @Curl_base64_decode(ptr noundef readonly captures(none) %0, ptr noundef writeonly captures(none) initializes((0, 8)) %1, ptr noundef writeonly captures(none) initializes((0, 8)) %2) local_unnamed_addr #0 {
  %4 = alloca [256 x i8], align 16
  call void @llvm.lifetime.start.p0(i64 256, ptr nonnull %4) #5
  store ptr null, ptr %1, align 8, !tbaa !4
  store i64 0, ptr %2, align 8, !tbaa !9
  %5 = tail call i64 @strlen(ptr noundef nonnull dereferenceable(1) %0) #6
  %.not = icmp ne i64 %5, 0
  %6 = and i64 %5, 3
  %.not83 = icmp eq i64 %6, 0
  %or.cond = and i1 %.not, %.not83
  br i1 %or.cond, label %.preheader96, label %.loopexit

.preheader96:                                     ; preds = %3
  %7 = getelementptr i8, ptr %0, i64 %5
  br label %8

8:                                                ; preds = %.preheader96, %13
  %.075 = phi i64 [ %14, %13 ], [ 0, %.preheader96 ]
  %9 = xor i64 %.075, -1
  %10 = getelementptr i8, ptr %7, i64 %9
  %11 = load i8, ptr %10, align 1, !tbaa !11
  %12 = icmp eq i8 %11, 61
  br i1 %12, label %13, label %15

13:                                               ; preds = %8
  %14 = add nuw nsw i64 %.075, 1
  %exitcond = icmp eq i64 %14, 3
  br i1 %exitcond, label %.loopexit, label %8, !llvm.loop !12

15:                                               ; preds = %8
  %16 = lshr exact i64 %5, 2
  %.not84 = icmp ne i64 %.075, 0
  %.neg = sext i1 %.not84 to i64
  %17 = add nsw i64 %16, %.neg
  %18 = mul nuw i64 %16, 3
  %19 = sub i64 %18, %.075
  %20 = load ptr, ptr @Curl_cmalloc, align 8, !tbaa !14
  %21 = add i64 %19, 1
  %22 = tail call ptr %20(i64 noundef %21) #5
  %.not85 = icmp eq ptr %22, null
  br i1 %.not85, label %.loopexit, label %23

23:                                               ; preds = %15
  call void @llvm.memset.p0.i64(ptr noundef nonnull align 16 dereferenceable(256) %4, i8 -1, i64 256, i1 false)
  %24 = getelementptr inbounds nuw i8, ptr %4, i64 43
  call void @llvm.memcpy.p0.p0.i64(ptr noundef nonnull align 1 dereferenceable(80) %24, ptr noundef nonnull align 16 dereferenceable(80) @decodetable, i64 80, i1 false)
  %.not114 = icmp eq i64 %17, 0
  br i1 %.not114, label %._crit_edge, label %.preheader94

.preheader94:                                     ; preds = %23, %37
  %.067108 = phi ptr [ %scevgep, %37 ], [ %0, %23 ]
  %.071107 = phi ptr [ %45, %37 ], [ %22, %23 ]
  %.076106 = phi i64 [ %46, %37 ], [ 0, %23 ]
  %scevgep = getelementptr i8, ptr %.067108, i64 4
  br label %25

25:                                               ; preds = %.preheader94, %31
  %.065105 = phi i32 [ 0, %.preheader94 ], [ %36, %31 ]
  %.066104 = phi i32 [ 0, %.preheader94 ], [ %35, %31 ]
  %.168103 = phi ptr [ %.067108, %.preheader94 ], [ %32, %31 ]
  %26 = load i8, ptr %.168103, align 1, !tbaa !11
  %27 = zext i8 %26 to i64
  %28 = getelementptr inbounds nuw [256 x i8], ptr %4, i64 0, i64 %27
  %29 = load i8, ptr %28, align 1, !tbaa !11
  %30 = icmp eq i8 %29, -1
  br i1 %30, label %.thread91, label %31

31:                                               ; preds = %25
  %32 = getelementptr inbounds nuw i8, ptr %.168103, i64 1
  %33 = zext i8 %29 to i32
  %34 = shl i32 %.066104, 6
  %35 = or i32 %34, %33
  %36 = add nuw nsw i32 %.065105, 1
  %exitcond120.not = icmp eq i32 %36, 4
  br i1 %exitcond120.not, label %37, label %25, !llvm.loop !15

37:                                               ; preds = %31
  %38 = trunc i32 %35 to i8
  %39 = getelementptr inbounds nuw i8, ptr %.071107, i64 2
  store i8 %38, ptr %39, align 1, !tbaa !11
  %40 = lshr i32 %34, 8
  %41 = trunc i32 %40 to i8
  %42 = getelementptr inbounds nuw i8, ptr %.071107, i64 1
  store i8 %41, ptr %42, align 1, !tbaa !11
  %43 = lshr i32 %34, 16
  %44 = trunc i32 %43 to i8
  store i8 %44, ptr %.071107, align 1, !tbaa !11
  %45 = getelementptr inbounds nuw i8, ptr %.071107, i64 3
  %46 = add nuw i64 %.076106, 1
  %exitcond121.not = icmp eq i64 %46, %17
  br i1 %exitcond121.not, label %._crit_edge, label %.preheader94, !llvm.loop !16

._crit_edge:                                      ; preds = %37, %23
  %.071.lcssa = phi ptr [ %22, %23 ], [ %45, %37 ]
  %.067.lcssa = phi ptr [ %0, %23 ], [ %scevgep, %37 ]
  br i1 %.not84, label %.preheader, label %75

.preheader:                                       ; preds = %._crit_edge, %62
  %.0113 = phi i64 [ %.1, %62 ], [ 0, %._crit_edge ]
  %.061112 = phi i32 [ %63, %62 ], [ 0, %._crit_edge ]
  %.062111 = phi i32 [ %.163, %62 ], [ 0, %._crit_edge ]
  %.3110 = phi ptr [ %.4, %62 ], [ %.067.lcssa, %._crit_edge ]
  %47 = load i8, ptr %.3110, align 1, !tbaa !11
  %48 = icmp eq i8 %47, 61
  br i1 %48, label %49, label %53

49:                                               ; preds = %.preheader
  %50 = shl i32 %.062111, 6
  %51 = add i64 %.0113, 1
  %52 = icmp ugt i64 %51, %.075
  br i1 %52, label %.thread91, label %62

53:                                               ; preds = %.preheader
  %54 = zext i8 %47 to i64
  %55 = getelementptr inbounds nuw [256 x i8], ptr %4, i64 0, i64 %54
  %56 = load i8, ptr %55, align 1, !tbaa !11
  %57 = icmp eq i8 %56, -1
  br i1 %57, label %.thread91, label %58

58:                                               ; preds = %53
  %59 = zext i8 %56 to i32
  %60 = shl i32 %.062111, 6
  %61 = or i32 %60, %59
  br label %62

62:                                               ; preds = %58, %49
  %.163 = phi i32 [ %50, %49 ], [ %61, %58 ]
  %.1 = phi i64 [ %51, %49 ], [ %.0113, %58 ]
  %.4 = getelementptr inbounds nuw i8, ptr %.3110, i64 1
  %63 = add nuw nsw i32 %.061112, 1
  %exitcond122.not = icmp eq i32 %63, 4
  br i1 %exitcond122.not, label %64, label %.preheader, !llvm.loop !17

64:                                               ; preds = %62
  %65 = icmp eq i64 %.075, 1
  br i1 %65, label %66, label %70

66:                                               ; preds = %64
  %67 = lshr i32 %.163, 8
  %68 = trunc i32 %67 to i8
  %69 = getelementptr inbounds nuw i8, ptr %.071.lcssa, i64 1
  store i8 %68, ptr %69, align 1, !tbaa !11
  br label %70

70:                                               ; preds = %64, %66
  %71 = lshr i32 %.163, 16
  %72 = trunc i32 %71 to i8
  store i8 %72, ptr %.071.lcssa, align 1, !tbaa !11
  %73 = sub nuw nsw i64 3, %.075
  %74 = getelementptr inbounds nuw i8, ptr %.071.lcssa, i64 %73
  br label %75

75:                                               ; preds = %70, %._crit_edge
  %.273 = phi ptr [ %74, %70 ], [ %.071.lcssa, %._crit_edge ]
  store i8 0, ptr %.273, align 1, !tbaa !11
  store ptr %22, ptr %1, align 8, !tbaa !4
  store i64 %19, ptr %2, align 8, !tbaa !9
  br label %.loopexit

.thread91:                                        ; preds = %25, %53, %49
  %76 = load ptr, ptr @Curl_cfree, align 8, !tbaa !14
  tail call void %76(ptr noundef nonnull %22) #5
  br label %.loopexit

.loopexit:                                        ; preds = %13, %15, %3, %.thread91, %75
  %.064 = phi i32 [ 61, %.thread91 ], [ 0, %75 ], [ 61, %3 ], [ 27, %15 ], [ 61, %13 ]
  call void @llvm.lifetime.end.p0(i64 256, ptr nonnull %4) #5
  ret i32 %.064
}